target datalayout = "e-m:e-p270:32:32-p271:32:32-p272:64:64-i64:64-i128:128-f80:128-n8:16:32:64-S128"
target triple = "x86_64-unknown-linux-gnu"

%"struct.OpenColorIO_v2_4dev::CDLOpData::ChannelParams" = type { [3 x double] }
%"class.std::__cxx11::basic_string" = type { %"struct.std::__cxx11::basic_string<char>::_Alloc_hider", i64, %union.anon.0 }
%"struct.std::__cxx11::basic_string<char>::_Alloc_hider" = type { ptr }
%union.anon.0 = type { i64, [8 x i8] }
%"class.OpenColorIO_v2_4dev::CDLOpData" = type { %"class.OpenColorIO_v2_4dev::OpData", i32, %"struct.OpenColorIO_v2_4dev::CDLOpData::ChannelParams", %"struct.OpenColorIO_v2_4dev::CDLOpData::ChannelParams", %"struct.OpenColorIO_v2_4dev::CDLOpData::ChannelParams", double }
%"class.OpenColorIO_v2_4dev::OpData" = type { ptr, %"class.std::mutex", %"class.OpenColorIO_v2_4dev::FormatMetadataImpl" }
%"class.std::mutex" = type { %"class.std::__mutex_base" }
%"class.std::__mutex_base" = type { %union.pthread_mutex_t }
%union.pthread_mutex_t = type { %struct.__pthread_mutex_s }
%struct.__pthread_mutex_s = type { i32, i32, i32, i32, i32, i16, i16, %struct.__pthread_internal_list }
%struct.__pthread_internal_list = type { ptr, ptr }
%"class.OpenColorIO_v2_4dev::FormatMetadataImpl" = type { %"class.OpenColorIO_v2_4dev::FormatMetadata", %"class.std::__cxx11::basic_string", %"class.std::__cxx11::basic_string", %"class.std::vector", %"class.std::vector.4" }
%"class.OpenColorIO_v2_4dev::FormatMetadata" = type { ptr }
%"class.std::vector" = type { %"struct.std::_Vector_base" }
%"struct.std::_Vector_base" = type { %"struct.std::_Vector_base<std::pair<std::__cxx11::basic_string<char>, std::__cxx11::basic_string<char>>, std::allocator<std::pair<std::__cxx11::basic_string<char>, std::__cxx11::basic_string<char>>>>::_Vector_impl" }
%"struct.std::_Vector_base<std::pair<std::__cxx11::basic_string<char>, std::__cxx11::basic_string<char>>, std::allocator<std::pair<std::__cxx11::basic_string<char>, std::__cxx11::basic_string<char>>>>::_Vector_impl" = type { %"struct.std::_Vector_base<std::pair<std::__cxx11::basic_string<char>, std::__cxx11::basic_string<char>>, std::allocator<std::pair<std::__cxx11::basic_string<char>, std::__cxx11::basic_string<char>>>>::_Vector_impl_data" }
%"struct.std::_Vector_base<std::pair<std::__cxx11::basic_string<char>, std::__cxx11::basic_string<char>>, std::allocator<std::pair<std::__cxx11::basic_string<char>, std::__cxx11::basic_string<char>>>>::_Vector_impl_data" = type { ptr, ptr, ptr }
%"class.std::vector.4" = type { %"struct.std::_Vector_base.5" }
%"struct.std::_Vector_base.5" = type { %"struct.std::_Vector_base<OpenColorIO_v2_4dev::FormatMetadataImpl, std::allocator<OpenColorIO_v2_4dev::FormatMetadataImpl>>::_Vector_impl" }
%"struct.std::_Vector_base<OpenColorIO_v2_4dev::FormatMetadataImpl, std::allocator<OpenColorIO_v2_4dev::FormatMetadataImpl>>::_Vector_impl" = type { %"struct.std::_Vector_base<OpenColorIO_v2_4dev::FormatMetadataImpl, std::allocator<OpenColorIO_v2_4dev::FormatMetadataImpl>>::_Vector_impl_data" }
%"struct.std::_Vector_base<OpenColorIO_v2_4dev::FormatMetadataImpl, std::allocator<OpenColorIO_v2_4dev::FormatMetadataImpl>>::_Vector_impl_data" = type { ptr, ptr, ptr }

@_ZTVN19OpenColorIO_v2_4dev6OpDataE = external unnamed_addr constant { [13 x ptr] }, align 8

; Function Attrs: mustprogress nounwind uwtable
define linkonce_odr hidden void @_ZN19OpenColorIO_v2_4dev6OpDataD2Ev(ptr noundef nonnull align 8 dereferenceable(168) %this) unnamed_addr #5 comdat align 2 {
entry:
  %this.addr = alloca ptr, align 8
  store ptr %this, ptr %this.addr, align 8
  %this1 = load ptr, ptr %this.addr, align 8
  store ptr getelementptr inbounds ({ [13 x ptr] }, ptr @_ZTVN19OpenColorIO_v2_4dev6OpDataE, i32 0, i32 0, i32 2), ptr %this1, align 8
  %m_metadata = getelementptr inbounds %"class.OpenColorIO_v2_4dev::OpData", ptr %this1, i32 0, i32 2
  call void @_ZN19OpenColorIO_v2_4dev18FormatMetadataImplD1Ev(ptr noundef nonnull align 8 dereferenceable(120) %m_metadata) #3
  ret void
}

; Function Attrs: mustprogress uwtable
define hidden void @_ZN19OpenColorIO_v2_4dev9CDLOpDataC2ERKNS0_5StyleERKNS0_13ChannelParamsES6_S6_d(ptr noundef nonnull align 8 dereferenceable(256) %this, ptr noundef nonnull align 4 dereferenceable(4) %style, ptr noundef nonnull align 8 dereferenceable(24) %slopeParams, ptr noundef nonnull align 8 dereferenceable(24) %offsetParams, ptr noundef nonnull align 8 dereferenceable(24) %powerParams, double noundef %saturation) unnamed_addr #4 align 2 personality ptr @__gxx_personality_v0 {
entry:
  %this.addr = alloca ptr, align 8
  %style.addr = alloca ptr, align 8
  %slopeParams.addr = alloca ptr, align 8
  %offsetParams.addr = alloca ptr, align 8
  %powerParams.addr = alloca ptr, align 8
  %saturation.addr = alloca double, align 8
  %exn.slot = alloca ptr, align 8
  %ehselector.slot = alloca i32, align 4
  store ptr %this, ptr %this.addr, align 8
  store ptr %style, ptr %style.addr, align 8
  store ptr %slopeParams, ptr %slopeParams.addr, align 8
  store ptr %offsetParams, ptr %offsetParams.addr, align 8
  store ptr %powerParams, ptr %powerParams.addr, align 8
  store double %saturation, ptr %saturation.addr, align 8
  %this1 = load ptr, ptr %this.addr, align 8
  call void @_ZN19OpenColorIO_v2_4dev6OpDataC2Ev(ptr noundef nonnull align 8 dereferenceable(168) %this1)
  store ptr getelementptr inbounds ({ [13 x ptr] }, ptr @_ZTVN19OpenColorIO_v2_4dev9CDLOpDataE, i32 0, i32 0, i32 2), ptr %this1, align 8
  %m_style = getelementptr inbounds %"class.OpenColorIO_v2_4dev::CDLOpData", ptr %this1, i32 0, i32 1
  %0 = load ptr, ptr %style.addr, align 8
  %1 = load i32, ptr %0, align 4
  store i32 %1, ptr %m_style, align 8
  %m_slopeParams = getelementptr inbounds %"class.OpenColorIO_v2_4dev::CDLOpData", ptr %this1, i32 0, i32 2
  %2 = load ptr, ptr %slopeParams.addr, align 8
  call void @llvm.memcpy.p0.p0.i64(ptr align 8 %m_slopeParams, ptr align 8 %2, i64 24, i1 false)
  %m_offsetParams = getelementptr inbounds %"class.OpenColorIO_v2_4dev::CDLOpData", ptr %this1, i32 0, i32 3
  %3 = load ptr, ptr %offsetParams.addr, align 8
  call void @llvm.memcpy.p0.p0.i64(ptr align 8 %m_offsetParams, ptr align 8 %3, i64 24, i1 false)
  %m_powerParams = getelementptr inbounds %"class.OpenColorIO_v2_4dev::CDLOpData", ptr %this1, i32 0, i32 4
  %4 = load ptr, ptr %powerParams.addr, align 8
  call void @llvm.memcpy.p0.p0.i64(ptr align 8 %m_powerParams, ptr align 8 %4, i64 24, i1 false)
  %m_saturation = getelementptr inbounds %"class.OpenColorIO_v2_4dev::CDLOpData", ptr %this1, i32 0, i32 5
  %5 = load double, ptr %saturation.addr, align 8
  store double %5, ptr %m_saturation, align 8
  %vtable = load ptr, ptr %this1, align 8
  %vfn = getelementptr inbounds ptr, ptr %vtable, i64 2
  %6 = load ptr, ptr %vfn, align 8
  invoke void %6(ptr noundef nonnull align 8 dereferenceable(256) %this1)
          to label %invoke.cont unwind label %lpad

invoke.cont:                                      ; preds = %entry
  ret void

lpad:                                             ; preds = %entry
  %7 = landingpad { ptr, i32 }
          cleanup
  %8 = extractvalue { ptr, i32 } %7, 0
  store ptr %8, ptr %exn.slot, align 8
  %9 = extractvalue { ptr, i32 } %7, 1
  store i32 %9, ptr %ehselector.slot, align 4
  call void @_ZN19OpenColorIO_v2_4dev6OpDataD2Ev(ptr noundef nonnull align 8 dereferenceable(168) %this1) #3
  br label %eh.resume

eh.resume:                                        ; preds = %lpad
  %exn = load ptr, ptr %exn.slot, align 8
  %sel = load i32, ptr %ehselector.slot, align 4
  %lpad.val = insertvalue { ptr, i32 } poison, ptr %exn, 0
  %lpad.val2 = insertvalue { ptr, i32 } %lpad.val, i32 %sel, 1
  resume { ptr, i32 } %lpad.val2
}