; Function Attrs: mustprogress uwtable
define hidden void @_ZN19OpenColorIO_v2_4dev9CDLOpDataC2ERKNS0_5StyleERKNS0_13ChannelParamsES6_S6_d(ptr noundef nonnull align 8 dereferenceable(256) %this, ptr nocapture noundef nonnull readonly align 4 dereferenceable(4) %style, ptr nocapture noundef nonnull readonly align 8 dereferenceable(24) %slopeParams, ptr nocapture noundef nonnull readonly align 8 dereferenceable(24) %offsetParams, ptr nocapture noundef nonnull readonly align 8 dereferenceable(24) %powerParams, double noundef %saturation) unnamed_addr #3 align 2 personality ptr @__gxx_personality_v0 {
entry:
  tail call void @_ZN19OpenColorIO_v2_4dev6OpDataC2Ev(ptr noundef nonnull align 8 dereferenceable(168) %this)
  store ptr getelementptr inbounds ({ [13 x ptr] }, ptr @_ZTVN19OpenColorIO_v2_4dev9CDLOpDataE, i64 0, i32 0, i64 2), ptr %this, align 8
  %m_style = getelementptr inbounds i8, ptr %this, i64 168
  %0 = load i32, ptr %style, align 4
  store i32 %0, ptr %m_style, align 8
  %m_slopeParams = getelementptr inbounds i8, ptr %this, i64 176
  tail call void @llvm.memcpy.p0.p0.i64(ptr noundef nonnull align 8 dereferenceable(24) %m_slopeParams, ptr noundef nonnull align 8 dereferenceable(24) %slopeParams, i64 24, i1 false)
  %m_offsetParams = getelementptr inbounds i8, ptr %this, i64 200
  tail call void @llvm.memcpy.p0.p0.i64(ptr noundef nonnull align 8 dereferenceable(24) %m_offsetParams, ptr noundef nonnull align 8 dereferenceable(24) %offsetParams, i64 24, i1 false)
  %m_powerParams = getelementptr inbounds i8, ptr %this, i64 224
  tail call void @llvm.memcpy.p0.p0.i64(ptr noundef nonnull align 8 dereferenceable(24) %m_powerParams, ptr noundef nonnull align 8 dereferenceable(24) %powerParams, i64 24, i1 false)
  %m_saturation = getelementptr inbounds i8, ptr %this, i64 248
  store double %saturation, ptr %m_saturation, align 8
  br label %_ZNK19OpenColorIO_v2_4dev9CDLOpData13ChannelParamsixEj.exit.i.i.i

_ZNK19OpenColorIO_v2_4dev9CDLOpData13ChannelParamsixEj.exit.i.i.i: ; preds = %.noexc, %entry
  %indvars.iv.i.i.i = phi i64 [ 0, %entry ], [ %indvars.iv.next.i.i.i, %.noexc ]
  %arrayidx.i.i.i.i = getelementptr inbounds [3 x double], ptr %m_slopeParams, i64 0, i64 %indvars.iv.i.i.i
  %1 = load double, ptr %arrayidx.i.i.i.i, align 8
  invoke void @_ZN19OpenColorIO_v2_4dev20validateGreaterEqualEPKcdd(ptr noundef nonnull @.str.10, double noundef %1, double noundef 0.000000e+00)
          to label %.noexc unwind label %lpad.loopexit.split-lp.loopexit

.noexc:                                           ; preds = %_ZNK19OpenColorIO_v2_4dev9CDLOpData13ChannelParamsixEj.exit.i.i.i
  %indvars.iv.next.i.i.i = add nuw nsw i64 %indvars.iv.i.i.i, 1
  %exitcond.not.i.i.i = icmp eq i64 %indvars.iv.next.i.i.i, 3
  br i1 %exitcond.not.i.i.i, label %_ZNK19OpenColorIO_v2_4dev9CDLOpData13ChannelParamsixEj.exit.i1.i.i, label %_ZNK19OpenColorIO_v2_4dev9CDLOpData13ChannelParamsixEj.exit.i.i.i, !llvm.loop !4

_ZNK19OpenColorIO_v2_4dev9CDLOpData13ChannelParamsixEj.exit.i1.i.i: ; preds = %.noexc, %.noexc1
  %indvars.iv.i2.i.i = phi i64 [ %indvars.iv.next.i4.i.i, %.noexc1 ], [ 0, %.noexc ]
  %arrayidx.i.i3.i.i = getelementptr inbounds [3 x double], ptr %m_powerParams, i64 0, i64 %indvars.iv.i2.i.i
  %2 = load double, ptr %arrayidx.i.i3.i.i, align 8
  invoke void @_ZN19OpenColorIO_v2_4dev19validateGreaterThanEPKcdd(ptr noundef nonnull @.str.11, double noundef %2, double noundef 0.000000e+00)
          to label %.noexc1 unwind label %lpad.loopexit

.noexc1:                                          ; preds = %_ZNK19OpenColorIO_v2_4dev9CDLOpData13ChannelParamsixEj.exit.i1.i.i
  %indvars.iv.next.i4.i.i = add nuw nsw i64 %indvars.iv.i2.i.i, 1
  %exitcond.not.i5.i.i = icmp eq i64 %indvars.iv.next.i4.i.i, 3
  br i1 %exitcond.not.i5.i.i, label %_ZN19OpenColorIO_v2_4dev14validateParamsERKNS_9CDLOpData13ChannelParamsES3_d.exit.i, label %_ZNK19OpenColorIO_v2_4dev9CDLOpData13ChannelParamsixEj.exit.i1.i.i, !llvm.loop !6

_ZN19OpenColorIO_v2_4dev14validateParamsERKNS_9CDLOpData13ChannelParamsES3_d.exit.i: ; preds = %.noexc1
  invoke void @_ZN19OpenColorIO_v2_4dev20validateGreaterEqualEPKcdd(ptr noundef nonnull @.str.12, double noundef %saturation, double noundef 0.000000e+00)
          to label %invoke.cont unwind label %lpad.loopexit.split-lp.loopexit.split-lp

invoke.cont:                                      ; preds = %_ZN19OpenColorIO_v2_4dev14validateParamsERKNS_9CDLOpData13ChannelParamsES3_d.exit.i
  ret void

lpad.loopexit:                                    ; preds = %_ZNK19OpenColorIO_v2_4dev9CDLOpData13ChannelParamsixEj.exit.i1.i.i
  %lpad.loopexit3 = landingpad { ptr, i32 }
          cleanup
  br label %lpad

lpad.loopexit.split-lp.loopexit:                  ; preds = %_ZNK19OpenColorIO_v2_4dev9CDLOpData13ChannelParamsixEj.exit.i.i.i
  %lpad.loopexit5 = landingpad { ptr, i32 }
          cleanup
  br label %lpad

lpad.loopexit.split-lp.loopexit.split-lp:         ; preds = %_ZN19OpenColorIO_v2_4dev14validateParamsERKNS_9CDLOpData13ChannelParamsES3_d.exit.i
  %lpad.loopexit.split-lp6 = landingpad { ptr, i32 }
          cleanup
  br label %lpad

lpad:                                             ; preds = %lpad.loopexit.split-lp.loopexit, %lpad.loopexit.split-lp.loopexit.split-lp, %lpad.loopexit
  %lpad.phi = phi { ptr, i32 } [ %lpad.loopexit3, %lpad.loopexit ], [ %lpad.loopexit5, %lpad.loopexit.split-lp.loopexit ], [ %lpad.loopexit.split-lp6, %lpad.loopexit.split-lp.loopexit.split-lp ]
  store ptr getelementptr inbounds ({ [13 x ptr] }, ptr @_ZTVN19OpenColorIO_v2_4dev6OpDataE, i64 0, i32 0, i64 2), ptr %this, align 8
  %m_metadata.i = getelementptr inbounds i8, ptr %this, i64 48
  tail call void @_ZN19OpenColorIO_v2_4dev18FormatMetadataImplD1Ev(ptr noundef nonnull align 8 dereferenceable(120) %m_metadata.i) #19
  resume { ptr, i32 } %lpad.phi
}